target datalayout = "e-m:e-p270:32:32-p271:32:32-p272:64:64-i64:64-i128:128-f80:128-n8:16:32:64-S128"
target triple = "x86_64-pc-linux-gnu"

; Function Attrs: nounwind uwtable
define internal i32 @int_end_context(ptr noundef %0, i32 noundef %1) #0 {
  %3 = alloca i32, align 4
  %4 = alloca ptr, align 8
  %5 = alloca i32, align 4
  %6 = alloca i64, align 8
  %7 = alloca i64, align 8
  %8 = alloca i32, align 4
  store ptr %0, ptr %4, align 8, !tbaa !3
  store i32 %1, ptr %5, align 4, !tbaa !8
  call void @llvm.lifetime.start.p0(i64 8, ptr %6) #5
  call void @llvm.lifetime.start.p0(i64 8, ptr %7) #5
  %9 = load i32, ptr %5, align 4, !tbaa !8
  %10 = icmp slt i32 %9, 0
  br i1 %10, label %11, label %12

11:                                               ; preds = %2
  store i32 1, ptr %3, align 4
  store i32 1, ptr %8, align 4
  br label %53

12:                                               ; preds = %2
  %13 = load i32, ptr %5, align 4, !tbaa !8
  %14 = icmp sle i32 %13, 30
  %15 = zext i1 %14 to i32
  %16 = icmp ne i32 %15, 0
  %17 = xor i1 %16, true
  %18 = xor i1 %17, true
  %19 = zext i1 %18 to i32
  %20 = sext i32 %19 to i64
  %21 = call i64 @llvm.expect.i64(i64 %20, i64 1)
  %22 = icmp ne i64 %21, 0
  br i1 %22, label %24, label %23

23:                                               ; preds = %12
  store i32 0, ptr %3, align 4
  store i32 1, ptr %8, align 4
  br label %53

24:                                               ; preds = %12
  %25 = load i32, ptr %5, align 4, !tbaa !8
  %26 = or i32 %25, 160
  store i32 %26, ptr %5, align 4, !tbaa !8
  %27 = load ptr, ptr %4, align 8, !tbaa !3
  %28 = call i32 @WPACKET_get_total_written(ptr noundef %27, ptr noundef %6)
  %29 = icmp ne i32 %28, 0
  br i1 %29, label %30, label %50

30:                                               ; preds = %24
  %31 = load ptr, ptr %4, align 8, !tbaa !3
  %32 = call i32 @WPACKET_close(ptr noundef %31)
  %33 = icmp ne i32 %32, 0
  br i1 %33, label %34, label %50

34:                                               ; preds = %30
  %35 = load ptr, ptr %4, align 8, !tbaa !3
  %36 = call i32 @WPACKET_get_total_written(ptr noundef %35, ptr noundef %7)
  %37 = icmp ne i32 %36, 0
  br i1 %37, label %38, label %50

38:                                               ; preds = %34
  %39 = load i64, ptr %6, align 8, !tbaa !12
  %40 = load i64, ptr %7, align 8, !tbaa !12
  %41 = icmp eq i64 %39, %40
  br i1 %41, label %48, label %42

42:                                               ; preds = %38
  %43 = load ptr, ptr %4, align 8, !tbaa !3
  %44 = load i32, ptr %5, align 4, !tbaa !8
  %45 = sext i32 %44 to i64
  %46 = call i32 @WPACKET_put_bytes__(ptr noundef %43, i64 noundef %45, i64 noundef 1)
  %47 = icmp ne i32 %46, 0
  br label %48

48:                                               ; preds = %42, %38
  %49 = phi i1 [ true, %38 ], [ %47, %42 ]
  br label %50

50:                                               ; preds = %48, %34, %30, %24
  %51 = phi i1 [ false, %34 ], [ false, %30 ], [ false, %24 ], [ %49, %48 ]
  %52 = zext i1 %51 to i32
  store i32 %52, ptr %3, align 4
  store i32 1, ptr %8, align 4
  br label %53

53:                                               ; preds = %50, %23, %11
  call void @llvm.lifetime.end.p0(i64 8, ptr %7) #5
  call void @llvm.lifetime.end.p0(i64 8, ptr %6) #5
  %54 = load i32, ptr %3, align 4
  ret i32 %54
}

; Function Attrs: nounwind uwtable
define internal i32 @int_start_context(ptr noundef %0, i32 noundef %1) #0 {
  %3 = alloca i32, align 4
  %4 = alloca ptr, align 8
  %5 = alloca i32, align 4
  store ptr %0, ptr %4, align 8, !tbaa !3
  store i32 %1, ptr %5, align 4, !tbaa !8
  %6 = load i32, ptr %5, align 4, !tbaa !8
  %7 = icmp slt i32 %6, 0
  br i1 %7, label %8, label %9

8:                                                ; preds = %2
  store i32 1, ptr %3, align 4
  br label %24

9:                                                ; preds = %2
  %10 = load i32, ptr %5, align 4, !tbaa !8
  %11 = icmp sle i32 %10, 30
  %12 = zext i1 %11 to i32
  %13 = icmp ne i32 %12, 0
  %14 = xor i1 %13, true
  %15 = xor i1 %14, true
  %16 = zext i1 %15 to i32
  %17 = sext i32 %16 to i64
  %18 = call i64 @llvm.expect.i64(i64 %17, i64 1)
  %19 = icmp ne i64 %18, 0
  br i1 %19, label %21, label %20

20:                                               ; preds = %9
  store i32 0, ptr %3, align 4
  br label %24

21:                                               ; preds = %9
  %22 = load ptr, ptr %4, align 8, !tbaa !3
  %23 = call i32 @WPACKET_start_sub_packet(ptr noundef %22)
  store i32 %23, ptr %3, align 4
  br label %24

24:                                               ; preds = %21, %20, %8
  %25 = load i32, ptr %3, align 4
  ret i32 %25
}

; Function Attrs: nounwind uwtable
define internal i32 @int_der_w_integer(ptr noundef %0, i32 noundef %1, ptr noundef %2, ptr noundef %3) #0 {
  %5 = alloca ptr, align 8
  %6 = alloca i32, align 4
  %7 = alloca ptr, align 8
  %8 = alloca ptr, align 8
  %9 = alloca i32, align 4
  store ptr %0, ptr %5, align 8, !tbaa !3
  store i32 %1, ptr %6, align 4, !tbaa !8
  store ptr %2, ptr %7, align 8, !tbaa !17
  store ptr %3, ptr %8, align 8, !tbaa !17
  call void @llvm.lifetime.start.p0(i64 4, ptr %9) #5
  store i32 0, ptr %9, align 4, !tbaa !8
  %10 = load ptr, ptr %5, align 8, !tbaa !3
  %11 = load i32, ptr %6, align 4, !tbaa !8
  %12 = call i32 @int_start_context(ptr noundef %10, i32 noundef %11)
  %13 = icmp ne i32 %12, 0
  br i1 %13, label %14, label %45

14:                                               ; preds = %4
  %15 = load ptr, ptr %5, align 8, !tbaa !3
  %16 = call i32 @WPACKET_start_sub_packet(ptr noundef %15)
  %17 = icmp ne i32 %16, 0
  br i1 %17, label %18, label %45

18:                                               ; preds = %14
  %19 = load ptr, ptr %7, align 8, !tbaa !17
  %20 = load ptr, ptr %5, align 8, !tbaa !3
  %21 = load ptr, ptr %8, align 8, !tbaa !17
  %22 = call i32 %19(ptr noundef %20, ptr noundef %21, ptr noundef %9)
  %23 = icmp ne i32 %22, 0
  br i1 %23, label %24, label %45

24:                                               ; preds = %18
  %25 = load i32, ptr %9, align 4, !tbaa !8
  %26 = and i32 %25, 128
  %27 = icmp eq i32 %26, 0
  br i1 %27, label %32, label %28

28:                                               ; preds = %24
  %29 = load ptr, ptr %5, align 8, !tbaa !3
  %30 = call i32 @WPACKET_put_bytes__(ptr noundef %29, i64 noundef 0, i64 noundef 1)
  %31 = icmp ne i32 %30, 0
  br i1 %31, label %32, label %45

32:                                               ; preds = %28, %24
  %33 = load ptr, ptr %5, align 8, !tbaa !3
  %34 = call i32 @WPACKET_close(ptr noundef %33)
  %35 = icmp ne i32 %34, 0
  br i1 %35, label %36, label %45

36:                                               ; preds = %32
  %37 = load ptr, ptr %5, align 8, !tbaa !3
  %38 = call i32 @WPACKET_put_bytes__(ptr noundef %37, i64 noundef 2, i64 noundef 1)
  %39 = icmp ne i32 %38, 0
  br i1 %39, label %40, label %45

40:                                               ; preds = %36
  %41 = load ptr, ptr %5, align 8, !tbaa !3
  %42 = load i32, ptr %6, align 4, !tbaa !8
  %43 = call i32 @int_end_context(ptr noundef %41, i32 noundef %42)
  %44 = icmp ne i32 %43, 0
  br label %45

45:                                               ; preds = %40, %36, %32, %28, %18, %14, %4
  %46 = phi i1 [ false, %36 ], [ false, %32 ], [ false, %28 ], [ false, %18 ], [ false, %14 ], [ false, %4 ], [ %44, %40 ]
  %47 = zext i1 %46 to i32
  call void @llvm.lifetime.end.p0(i64 4, ptr %9) #5
  ret i32 %47
}