; Function Attrs: nounwind uwtable
define internal fastcc range(i32 0, 2) i32 @int_der_w_integer(ptr noundef %0, i32 noundef %1, ptr noundef readonly captures(none) %2, ptr noundef nonnull %3) unnamed_addr #0 {
  %5 = alloca i64, align 8
  %6 = alloca i64, align 8
  %7 = alloca i32, align 4
  call void @llvm.lifetime.start.p0(i64 4, ptr nonnull %7) #4
  store i32 0, ptr %7, align 4, !tbaa !11
  %8 = icmp slt i32 %1, 0
  br i1 %8, label %int_start_context.exit.thread18, label %9

9:                                                ; preds = %4
  %10 = icmp samesign ult i32 %1, 31
  br i1 %10, label %int_start_context.exit, label %int_start_context.exit.thread, !prof !3

int_start_context.exit:                           ; preds = %9
  %11 = tail call i32 @WPACKET_start_sub_packet(ptr noundef %0) #4
  %.not = icmp eq i32 %11, 0
  br i1 %.not, label %int_start_context.exit.thread, label %int_start_context.exit.thread18

int_start_context.exit.thread18:                  ; preds = %4, %int_start_context.exit
  %12 = tail call i32 @WPACKET_start_sub_packet(ptr noundef %0) #4
  %.not10 = icmp eq i32 %12, 0
  br i1 %.not10, label %int_start_context.exit.thread, label %13

13:                                               ; preds = %int_start_context.exit.thread18
  %14 = call i32 %2(ptr noundef %0, ptr noundef nonnull %3, ptr noundef nonnull %7) #4, !callees !13
  %.not11 = icmp eq i32 %14, 0
  br i1 %.not11, label %int_start_context.exit.thread, label %15

15:                                               ; preds = %13
  %16 = load i32, ptr %7, align 4, !tbaa !11
  %17 = and i32 %16, 128
  %18 = icmp eq i32 %17, 0
  br i1 %18, label %21, label %19

19:                                               ; preds = %15
  %20 = call i32 @WPACKET_put_bytes__(ptr noundef %0, i64 noundef 0, i64 noundef 1) #4
  %.not12 = icmp eq i32 %20, 0
  br i1 %.not12, label %int_start_context.exit.thread, label %21

21:                                               ; preds = %19, %15
  %22 = call i32 @WPACKET_close(ptr noundef %0) #4
  %.not13 = icmp eq i32 %22, 0
  br i1 %.not13, label %int_start_context.exit.thread, label %23

23:                                               ; preds = %21
  %24 = call i32 @WPACKET_put_bytes__(ptr noundef %0, i64 noundef 2, i64 noundef 1) #4
  %.not14 = icmp eq i32 %24, 0
  br i1 %.not14, label %int_start_context.exit.thread, label %25

25:                                               ; preds = %23
  call void @llvm.lifetime.start.p0(i64 8, ptr nonnull %5) #4
  call void @llvm.lifetime.start.p0(i64 8, ptr nonnull %6) #4
  br i1 %8, label %int_end_context.exit, label %26

26:                                               ; preds = %25
  %27 = or disjoint i32 %1, 160
  %28 = call i32 @WPACKET_get_total_written(ptr noundef %0, ptr noundef nonnull %5) #4
  %.not.i = icmp eq i32 %28, 0
  br i1 %.not.i, label %int_end_context.exit, label %29

29:                                               ; preds = %26
  %30 = call i32 @WPACKET_close(ptr noundef %0) #4
  %.not9.i = icmp eq i32 %30, 0
  br i1 %.not9.i, label %int_end_context.exit, label %31

31:                                               ; preds = %29
  %32 = call i32 @WPACKET_get_total_written(ptr noundef %0, ptr noundef nonnull %6) #4
  %.not10.i = icmp eq i32 %32, 0
  br i1 %.not10.i, label %int_end_context.exit, label %33

33:                                               ; preds = %31
  %34 = load i64, ptr %5, align 8, !tbaa !4
  %35 = load i64, ptr %6, align 8, !tbaa !4
  %36 = icmp eq i64 %34, %35
  br i1 %36, label %int_end_context.exit, label %37

37:                                               ; preds = %33
  %38 = zext nneg i32 %27 to i64
  %39 = call i32 @WPACKET_put_bytes__(ptr noundef %0, i64 noundef %38, i64 noundef 1) #4
  %40 = icmp ne i32 %39, 0
  %41 = zext i1 %40 to i32
  br label %int_end_context.exit

int_end_context.exit:                             ; preds = %25, %26, %29, %31, %33, %37
  %.0.i15 = phi i32 [ 1, %25 ], [ 0, %31 ], [ 0, %29 ], [ 0, %26 ], [ 1, %33 ], [ %41, %37 ]
  call void @llvm.lifetime.end.p0(i64 8, ptr nonnull %6) #4
  call void @llvm.lifetime.end.p0(i64 8, ptr nonnull %5) #4
  br label %int_start_context.exit.thread

int_start_context.exit.thread:                    ; preds = %9, %int_end_context.exit, %23, %21, %19, %13, %int_start_context.exit.thread18, %int_start_context.exit
  %42 = phi i32 [ 0, %23 ], [ 0, %21 ], [ 0, %19 ], [ 0, %13 ], [ 0, %int_start_context.exit.thread18 ], [ 0, %int_start_context.exit ], [ %.0.i15, %int_end_context.exit ], [ 0, %9 ]
  call void @llvm.lifetime.end.p0(i64 4, ptr nonnull %7) #4
  ret i32 %42
}